(dp0
S'gw'
p1
S'fds'
p2
sS'gv'
p3
S''
p4
sS'gu'
p5
S'h'
p6
sS'gt'
p7
g4
sS'gs'
p8
S'fd'
p9
sS'gr'
p10
S'f'
p11
sS'gq'
p12
S'fdsa'
p13
sS'gp'
p14
S'hjkl'
p15
sS'gz'
p16
S'fd'
p17
sS'gy'
p18
g4
sS'gx'
p19
g11
sS'gg'
p20
g4
sS'gf'
p21
g4
sS'ge'
p22
S'tr'
p23
sS'gd'
p24
g11
sS'gc'
p25
g4
sS'gb'
p26
g4
sS'ga'
p27
S'fds'
p28
sS'go'
p29
S'hjk'
p30
sS'gn'
p31
g6
sS'gm'
p32
S'hj'
p33
sS'gl'
p34
S'hjk'
p35
sS'gk'
p36
S'hj'
p37
sS'gj'
p38
g6
sS'gi'
p39
S'hj'
p40
sS'gh'
p41
g4
sS'tz'
p42
S'rd'
p43
sS'tx'
p44
g11
sS'ty'
p45
g4
sS'tv'
p46
S'g'
p47
sS'tw'
p48
S're'
p49
sS'tt'
p50
g4
sS'tu'
p51
S'y'
p52
sS'tr'
p53
g4
sS'ts'
p54
S'fd'
p55
sS'tp'
p56
S'yuio'
p57
sS'tq'
p58
S'rew'
p59
sS'tn'
p60
S'gb'
p61
sS'to'
p62
S'yui'
p63
sS'tl'
p64
S'ghjk'
p65
sS'tm'
p66
S'gbn'
p67
sS'tj'
p68
S'gh'
p69
sS'tk'
p70
S'ghj'
p71
sS'th'
p72
g47
sS'ti'
p73
S'yu'
p74
sS'tf'
p75
g4
sS'tg'
p76
g4
sS'td'
p77
g11
sS'te'
p78
S'r'
p79
sS'tb'
p80
g47
sS'tc'
p81
g11
sS'ta'
p82
S'fds'
p83
sS'vu'
p84
g6
sS'zl'
p85
S'dfghjk'
p86
sS'zm'
p87
S'xcvbn'
p88
sS'zn'
p89
S'xcvb'
p90
sS'zo'
p91
S'drtyui'
p92
sS'zh'
p93
S'dfg'
p94
sS'zi'
p95
S'drtyu'
p96
sS'zj'
p97
S'dfgh'
p98
sS'zk'
p99
S'dfghj'
p100
sS'zd'
p101
g4
sS'ze'
p102
S'd'
p103
sS'zf'
p104
g103
sS'zg'
p105
S'df'
p106
sS'za'
p107
g4
sS'zb'
p108
S'xcv'
p109
sS'zc'
p110
S'x'
p111
sS'zx'
p112
g4
sS'zy'
p113
S'drt'
p114
sS'zz'
p115
g4
sS'zt'
p116
S'dr'
p117
sS'zu'
p118
S'drty'
p119
sS'zv'
p120
S'xc'
p121
sS'zw'
p122
S's'
p123
sS'zp'
p124
S'drtyuio'
p125
sS'zq'
p126
S'a'
p127
sS'zr'
p128
g103
sS'zs'
p129
g4
sS'ii'
p130
g4
sS'wl'
p131
S'sdfghjk'
p132
sS'ix'
p133
S'uytf'
p134
sS'iz'
p135
S'uytrd'
p136
sS'wk'
p137
S'sdfghj'
p138
sS'iq'
p139
S'uytrew'
p140
sS'wj'
p141
S'sdfgh'
p142
sS'jj'
p143
g4
sS'vi'
p144
S'hu'
p145
sS'vj'
p146
g6
sS'vk'
p147
S'hj'
p148
sS'vl'
p149
S'hjk'
p150
sS'vm'
p151
S'bn'
p152
sS'vn'
p153
S'b'
p154
sS'vo'
p155
S'hui'
p156
sS'me'
p157
S'juytr'
p158
sS'md'
p159
S'jhgf'
p160
sS'mg'
p161
S'jh'
p162
sS'mf'
p163
S'jhg'
p164
sS'ma'
p165
S'jhgfds'
p166
sS'mc'
p167
S'nbv'
p168
sS'mb'
p169
S'n'
p170
sS'mm'
p171
g4
sS'ml'
p172
g4
sS'mo'
p173
S'k'
p174
sS'mn'
p175
g4
sS'mi'
p176
g174
sS'mh'
p177
S'j'
p178
sS'mk'
p179
g4
sS'mj'
p180
g4
sS'mu'
p181
g178
sS'mt'
p182
S'nbg'
p183
sS'mw'
p184
S'nbvcxs'
p185
sS'mv'
p186
S'nb'
p187
sS'mq'
p188
S'nbvcxza'
p189
sS'mp'
p190
S'l'
p191
sS'ms'
p192
S'nbvcx'
p193
sS'mr'
p194
S'nbvf'
p195
sS'vt'
p196
g47
sS'my'
p197
S'nh'
p198
sS'mx'
p199
S'nbvc'
p200
sS'mz'
p201
S'nbvcx'
p202
sS'vv'
p203
g4
sS'vw'
p204
S'cxs'
p205
sS'vx'
p206
S'c'
p207
sS'vz'
p208
S'cx'
p209
sS'fp'
p210
S'ghjkl'
p211
sS'fq'
p212
S'dsa'
p213
sS'fr'
p214
g4
sS'fs'
p215
g103
sS'ft'
p216
g4
sS'fu'
p217
S'gh'
p218
sS'fv'
p219
g4
sS'fw'
p220
S'ds'
p221
sS'fx'
p222
g4
sS'fy'
p223
g47
sS'fz'
p224
g103
sS'fa'
p225
S'ds'
p226
sS'fb'
p227
S'v'
p228
sS'fc'
p229
g4
sS'fd'
p230
g4
sS'fe'
p231
g79
sS'ff'
p232
g4
sS'fg'
p233
g4
sS'fh'
p234
g47
sS'fi'
p235
S'ghj'
p236
sS'fj'
p237
S'gh'
p238
sS'fk'
p239
S'ghj'
p240
sS'fl'
p241
S'ghjk'
p242
sS'fm'
p243
S'ghj'
p244
sS'fn'
p245
S'gh'
p246
sS'fo'
p247
S'ghjk'
p248
sS'sz'
p249
g4
sS'sy'
p250
S'dfg'
p251
sS'sx'
p252
g4
sS'ss'
p253
g4
sS'sr'
p254
S'e'
p255
sS'sq'
p256
S'w'
p257
sS'sp'
p258
S'ertyuio'
p259
sS'sw'
p260
g4
sS'sv'
p261
S'df'
p262
sS'su'
p263
S'dfgh'
p264
sS'st'
p265
S'df'
p266
sS'sk'
p267
S'dfghj'
p268
sS'sj'
p269
S'dfgh'
p270
sS'si'
p271
S'ertyu'
p272
sS'sh'
p273
S'dfg'
p274
sS'so'
p275
S'ertyui'
p276
sS'sn'
p277
S'xcvb'
p278
sS'sm'
p279
S'xcvbn'
p280
sS'sl'
p281
S'dfghjk'
p282
sS'sc'
p283
g111
sS'sb'
p284
S'xcv'
p285
sS'sa'
p286
g4
sS'sg'
p287
S'df'
p288
sS'sf'
p289
g103
sS'se'
p290
g4
sS'sd'
p291
g4
sS'lf'
p292
S'kjhg'
p293
sS'lg'
p294
S'kjh'
p295
sS'ld'
p296
S'kjhgf'
p297
sS'le'
p298
S'oiuytr'
p299
sS'lb'
p300
S'mn'
p301
sS'lc'
p302
S'mnbv'
p303
sS'la'
p304
S'kjhgfds'
p305
sS'ln'
p306
g174
sS'lo'
p307
g4
sS'll'
p308
g4
sS'lm'
p309
g4
sS'lj'
p310
g174
sS'lk'
p311
g4
sS'lh'
p312
S'kj'
p313
sS'li'
p314
S'o'
p315
sS'lv'
p316
S'kjh'
p317
sS'lw'
p318
S'kjhgfds'
p319
sS'lt'
p320
S'kjhg'
p321
sS'lu'
p322
S'kj'
p323
sS'lr'
p324
S'kjhgf'
p325
sS'ls'
p326
S'kjhgfd'
p327
sS'lp'
p328
g4
sS'lq'
p329
S'kjhgfdsa'
p330
sS'lz'
p331
S'kjhgfd'
p332
sS'lx'
p333
S'kjhgf'
p334
sS'ly'
p335
S'kjh'
p336
sS'yi'
p337
S'u'
p338
sS'yh'
p339
g4
sS'yk'
p340
S'hj'
p341
sS'yj'
p342
g6
sS'ym'
p343
S'hn'
p344
sS'yl'
p345
S'hjk'
p346
sS'yo'
p347
S'ui'
p348
sS'yn'
p349
g6
sS'ya'
p350
S'gfds'
p351
sS'yc'
p352
g47
sS'yb'
p353
g47
sS'ye'
p354
S'tr'
p355
sS'yd'
p356
S'gf'
p357
sS'yg'
p358
g4
sS'yf'
p359
g47
sS'yy'
p360
g4
sS'yx'
p361
S'gc'
p362
sS'yz'
p363
S'trd'
p364
sS'yq'
p365
S'trew'
p366
sS'yp'
p367
S'uio'
p368
sS'ys'
p369
S'gfd'
p370
sS'yr'
p371
S't'
p372
sS'yu'
p373
g4
sS'yt'
p374
g4
sS'yw'
p375
S'tre'
p376
sS'yv'
p377
g47
sS'em'
p378
S'rtyuj'
p379
sS'el'
p380
S'rtyuio'
p381
sS'eo'
p382
S'rtyui'
p383
sS'en'
p384
S'rtyh'
p385
sS'ei'
p386
S'rtyu'
p387
sS'eh'
p388
S'rty'
p389
sS'ek'
p390
S'rtyui'
p391
sS'ej'
p392
S'rtyu'
p393
sS'ee'
p394
g4
sS'ed'
p395
g4
sS'eg'
p396
S'rt'
p397
sS'ef'
p398
g79
sS'ea'
p399
g123
sS'ec'
p400
g103
sS'eb'
p401
S'dcv'
p402
sS'ey'
p403
S'rt'
p404
sS'ex'
p405
g103
sS'ez'
p406
g103
sS'eu'
p407
S'rty'
p408
sS'et'
p409
g79
sS'ew'
p410
g4
sS'ev'
p411
S'rf'
p412
sS'eq'
p413
g257
sS'ep'
p414
S'rtyuio'
p415
sS'es'
p416
g4
sS'er'
p417
g4
sS'rt'
p418
g4
sS'ru'
p419
S'ty'
p420
sS'rv'
p421
g11
sS'rw'
p422
g255
sS'rp'
p423
S'tyuio'
p424
sS'rq'
p425
S'ew'
p426
sS'rr'
p427
g4
sS'rs'
p428
g255
sS'rx'
p429
g11
sS'ry'
p430
g372
sS'rz'
p431
g103
sS'rd'
p432
g4
sS're'
p433
g4
sS'rf'
p434
g4
sS'rg'
p435
g11
sS'ra'
p436
S'ds'
p437
sS'rb'
p438
S'fv'
p439
sS'rc'
p440
g103
sS'rl'
p441
S'fghjk'
p442
sS'rm'
p443
S'fvbn'
p444
sS'rn'
p445
S'fvb'
p446
sS'ro'
p447
S'tyui'
p448
sS'rh'
p449
S'fg'
p450
sS'ri'
p451
S'tyu'
p452
sS'rj'
p453
S'fgh'
p454
sS'rk'
p455
S'fghj'
p456
sS'xj'
p457
S'fgh'
p458
sS'xk'
p459
S'fghj'
p460
sS'xh'
p461
S'fg'
p462
sS'xi'
p463
S'ftyu'
p464
sS'xn'
p465
S'cvb'
p466
sS'xo'
p467
S'ftyui'
p468
sS'xl'
p469
S'fghjk'
p470
sS'xm'
p471
S'cvbn'
p472
sS'xb'
p473
S'cv'
p474
sS'xc'
p475
g4
sS'xa'
p476
g123
sS'xf'
p477
g4
sS'xg'
p478
g11
sS'xd'
p479
g4
sS'xe'
p480
g103
sS'xz'
p481
g4
sS'xx'
p482
g4
sS'xy'
p483
S'cg'
p484
sS'xr'
p485
g11
sS'xs'
p486
g4
sS'xp'
p487
S'ftyuio'
p488
sS'xq'
p489
S'sw'
p490
sS'xv'
p491
g207
sS'xw'
p492
g123
sS'xt'
p493
g11
sS'xu'
p494
S'fty'
p495
sS'wy'
p496
S'ert'
p497
sS'wx'
p498
g123
sS'kc'
p499
S'nbv'
p500
sS'kb'
p501
g170
sS'ka'
p502
S'jhgfds'
p503
sS'kg'
p504
S'jh'
p505
sS'kf'
p506
S'jhg'
p507
sS'ke'
p508
S'iuytr'
p509
sS'kd'
p510
S'jhgf'
p511
sS'kk'
p512
g4
sS'kj'
p513
g4
sS'ki'
p514
g4
sS'kh'
p515
g178
sS'ko'
p516
g4
sS'kn'
p517
g4
sS'km'
p518
g4
sS'kl'
p519
g4
sS'ks'
p520
S'jhgfd'
p521
sS'kr'
p522
S'jhgf'
p523
sS'kq'
p524
S'jhgfdsa'
p525
sS'kp'
p526
g191
sS'kw'
p527
S'jhgfds'
p528
sS'kv'
p529
S'jh'
p530
sS'ku'
p531
g178
sS'kt'
p532
S'jhg'
p533
sS'kz'
p534
S'jhgfd'
p535
sS'ky'
p536
S'jh'
p537
sS'kx'
p538
S'jhgf'
p539
sS'dn'
p540
S'fgh'
p541
sS'do'
p542
S'fghjk'
p543
sS'dl'
p544
S'fghjk'
p545
sS'dm'
p546
S'fghj'
p547
sS'dj'
p548
S'fgh'
p549
sS'dk'
p550
S'fghj'
p551
sS'dh'
p552
S'fg'
p553
sS'di'
p554
S'fghj'
p555
sS'df'
p556
g4
sS'dg'
p557
g11
sS'dd'
p558
g4
sS'de'
p559
g4
sS'db'
p560
S'cv'
p561
sS'dc'
p562
g4
sS'da'
p563
g123
sS'dz'
p564
g4
sS'dx'
p565
g4
sS'dy'
p566
S'fg'
p567
sS'dv'
p568
g11
sS'dw'
p569
g123
sS'dt'
p570
g11
sS'du'
p571
S'fgh'
p572
sS'dr'
p573
g4
sS'ds'
p574
g4
sS'dp'
p575
S'fghjkl'
p576
sS'dq'
p577
S'sa'
p578
sS'qq'
p579
g4
sS'qp'
p580
S'wertyuio'
p581
sS'qs'
p582
g257
sS'qr'
p583
S'we'
p584
sS'qu'
p585
S'werty'
p586
sS'qt'
p587
S'wer'
p588
sS'qw'
p589
g4
sS'qv'
p590
S'werf'
p591
sS'qy'
p592
S'wert'
p593
sS'qx'
p594
S'ws'
p595
sS'qz'
p596
g127
sS'qa'
p597
g4
sS'qc'
p598
S'azx'
p599
sS'qb'
p600
S'azxcv'
p601
sS'qe'
p602
g257
sS'qd'
p603
S'as'
p604
sS'qg'
p605
S'asdf'
p606
sS'qf'
p607
S'asd'
p608
sS'qi'
p609
S'wertyu'
p610
sS'qh'
p611
S'asdfg'
p612
sS'qk'
p613
S'asdfghj'
p614
sS'qj'
p615
S'asdfgh'
p616
sS'qm'
p617
S'azxcvbn'
p618
sS'ql'
p619
S'asdfghjk'
p620
sS'qo'
p621
S'wertyui'
p622
sS'qn'
p623
S'azxcvb'
p624
sS'jx'
p625
S'hgf'
p626
sS'jy'
p627
g6
sS'jz'
p628
S'hgfd'
p629
sS'wo'
p630
S'ertyui'
p631
sS'wn'
p632
S'sxcvb'
p633
sS'wm'
p634
S'sxcvbn'
p635
sS'wg'
p636
S'sdf'
p637
sS'wf'
p638
S'sd'
p639
sS'we'
p640
g4
sS'wd'
p641
g123
sS'wc'
p642
S'sx'
p643
sS'wb'
p644
S'sxcv'
p645
sS'wa'
p646
g4
sS'jt'
p647
S'hg'
p648
sS'ju'
p649
g4
sS'jv'
p650
g6
sS'jw'
p651
S'hgfds'
p652
sS'jp'
p653
S'kl'
p654
sS'jq'
p655
S'hgfdsa'
p656
sS'wi'
p657
S'ertyu'
p658
sS'wh'
p659
S'sdfg'
p660
sS'jl'
p661
g174
sS'jm'
p662
g4
sS'jn'
p663
g4
sS'jo'
p664
g174
sS'jh'
p665
g4
sS'ji'
p666
g4
sS'wq'
p667
g4
sS'jk'
p668
g4
sS'jd'
p669
S'hgf'
p670
sS'je'
p671
S'uytr'
p672
sS'jf'
p673
S'hg'
p674
sS'jg'
p675
g6
sS'ja'
p676
S'hgfds'
p677
sS'jb'
p678
g4
sS'jc'
p679
S'bv'
p680
sS'ww'
p681
g4
sS'wv'
p682
S'sxc'
p683
sS'wu'
p684
S'erty'
p685
sS'wt'
p686
S'er'
p687
sS'ws'
p688
g4
sS'wr'
p689
g255
sS'ck'
p690
S'vbn'
p691
sS'cj'
p692
S'vb'
p693
sS'ci'
p694
S'vbj'
p695
sS'ch'
p696
g228
sS'co'
p697
S'vbnk'
p698
sS'cn'
p699
S'vb'
p700
sS'cm'
p701
S'vbn'
p702
sS'cl'
p703
S'vbnm'
p704
sS'cc'
p705
g4
sS'cb'
p706
g228
sS'ca'
p707
S'ds'
p708
sS'wp'
p709
S'ertyuio'
p710
sS'cg'
p711
g4
sS'cf'
p712
g4
sS'ce'
p713
g103
sS'cd'
p714
g4
sS'cz'
p715
g111
sS'cy'
p716
g47
sS'cx'
p717
g4
sS'cs'
p718
g111
sS'cr'
p719
g103
sS'cq'
p720
S'xza'
p721
sS'cp'
p722
S'vbnml'
p723
sS'cw'
p724
S'xs'
p725
sS'cv'
p726
g4
sS'cu'
p727
S'vh'
p728
sS'ct'
p729
g11
sS'pr'
p730
S'oiuyt'
p731
sS'ps'
p732
S'oiuytre'
p733
sS'pp'
p734
g4
sS'pq'
p735
S'oiuytrew'
p736
sS'pv'
p737
S'oiuh'
p738
sS'pw'
p739
S'oiuytre'
p740
sS'pt'
p741
S'oiuy'
p742
sS'pu'
p743
S'oi'
p744
sS'pz'
p745
S'oiuytrd'
p746
sS'px'
p747
S'oiuytf'
p748
sS'py'
p749
S'oiu'
p750
sS'wz'
p751
g123
sS'pb'
p752
S'lmn'
p753
sS'pc'
p754
S'lmnbv'
p755
sS'pa'
p756
S'lkjhgfds'
p757
sS'pf'
p758
S'lkjhg'
p759
sS'pg'
p760
S'lkjh'
p761
sS'pd'
p762
S'lkjhgf'
p763
sS'pe'
p764
S'oiuytr'
p765
sS'pj'
p766
S'lk'
p767
sS'pk'
p768
g191
sS'ph'
p769
S'lkj'
p770
sS'pi'
p771
g315
sS'pn'
p772
S'lm'
p773
sS'po'
p774
g4
sS'pl'
p775
g4
sS'pm'
p776
g191
sS'iy'
p777
g338
sS'va'
p778
S'fds'
p779
sS'vb'
p780
g4
sS'vc'
p781
g4
sS'vd'
p782
g11
sS've'
p783
S'fr'
p784
sS'vf'
p785
g4
sS'vg'
p786
g4
sS'vh'
p787
g4
sS'ip'
p788
g315
sS'is'
p789
S'uytre'
p790
sS'ir'
p791
S'uyt'
p792
sS'iu'
p793
g4
sS'it'
p794
S'uy'
p795
sS'iw'
p796
S'uytre'
p797
sS'iv'
p798
S'uh'
p799
sS'vp'
p800
S'huio'
p801
sS'ih'
p802
g178
sS'ik'
p803
g4
sS'ij'
p804
g4
sS'im'
p805
g174
sS'il'
p806
g315
sS'io'
p807
g4
sS'in'
p808
g174
sS'ia'
p809
S'jhgfds'
p810
sS'vy'
p811
g47
sS'ic'
p812
S'jbv'
p813
sS'ib'
p814
g178
sS'ie'
p815
S'uytr'
p816
sS'id'
p817
S'jhgf'
p818
sS'ig'
p819
S'jh'
p820
sS'if'
p821
S'jhg'
p822
sS'vr'
p823
g11
sS'jr'
p824
S'hgf'
p825
sS'vs'
p826
S'fd'
p827
sS'js'
p828
S'hgfd'
p829
sS'bd'
p830
S'vc'
p831
sS'be'
p832
S'vcd'
p833
sS'bf'
p834
g228
sS'bg'
p835
g4
sS'ba'
p836
S'gfds'
p837
sS'bb'
p838
g4
sS'bc'
p839
g228
sS'bl'
p840
S'nm'
p841
sS'bm'
p842
g170
sS'bn'
p843
g4
sS'bo'
p844
S'nk'
p845
sS'bh'
p846
g4
sS'bi'
p847
g178
sS'bj'
p848
g4
sS'bk'
p849
g170
sS'bt'
p850
g47
sS'bu'
p851
g6
sS'bv'
p852
g4
sS'bw'
p853
S'vcxs'
p854
sS'bp'
p855
S'nml'
p856
sS'bq'
p857
S'vcxza'
p858
sS'br'
p859
S'vf'
p860
sS'bs'
p861
S'vcx'
p862
sS'bx'
p863
S'vc'
p864
sS'by'
p865
g47
sS'bz'
p866
S'vcx'
p867
sS'oo'
p868
g4
sS'on'
p869
g174
sS'om'
p870
g174
sS'ol'
p871
g4
sS'ok'
p872
g4
sS'oj'
p873
g174
sS'oi'
p874
g4
sS'oh'
p875
S'kj'
p876
sS'og'
p877
S'kjh'
p878
sS'of'
p879
S'kjhg'
p880
sS'oe'
p881
S'iuytr'
p882
sS'od'
p883
S'kjhgf'
p884
sS'oc'
p885
S'knbv'
p886
sS'ob'
p887
S'kn'
p888
sS'oa'
p889
S'kjhgfds'
p890
sS'oz'
p891
S'iuytrd'
p892
sS'oy'
p893
S'iu'
p894
sS'ox'
p895
S'iuytf'
p896
sS'ow'
p897
S'iuytre'
p898
sS'ov'
p899
S'iuh'
p900
sS'ou'
p901
S'i'
p902
sS'ot'
p903
S'iuy'
p904
sS'os'
p905
S'iuytre'
p906
sS'or'
p907
S'iuyt'
p908
sS'oq'
p909
S'iuytrew'
p910
sS'op'
p911
g4
sS'hz'
p912
S'gfd'
p913
sS'hx'
p914
S'gf'
p915
sS'hy'
p916
g4
sS'hr'
p917
S'gf'
p918
sS'hs'
p919
S'gfd'
p920
sS'hp'
p921
S'jkl'
p922
sS'hq'
p923
S'gfdsa'
p924
sS'hv'
p925
g4
sS'hw'
p926
S'gfds'
p927
sS'ht'
p928
g47
sS'hu'
p929
g4
sS'hj'
p930
g4
sS'hk'
p931
g178
sS'hh'
p932
g4
sS'hi'
p933
g178
sS'hn'
p934
g4
sS'ho'
p935
S'jk'
p936
sS'hl'
p937
S'jk'
p938
sS'hm'
p939
g178
sS'hb'
p940
g4
sS'hc'
p941
g228
sS'ha'
p942
S'gfds'
p943
sS'hf'
p944
g47
sS'hg'
p945
g4
sS'hd'
p946
S'gf'
p947
sS'he'
p948
S'ytr'
p949
sS'uy'
p950
g4
sS'ux'
p951
S'ytf'
p952
sS'uz'
p953
S'ytrd'
p954
sS'uu'
p955
g4
sS'ut'
p956
g52
sS'uw'
p957
S'ytre'
p958
sS'uv'
p959
g6
sS'uq'
p960
S'ytrew'
p961
sS'up'
p962
S'io'
p963
sS'us'
p964
S'hgfd'
p965
sS'ur'
p966
S'yt'
p967
sS'um'
p968
g178
sS'ul'
p969
S'jk'
p970
sS'uo'
p971
g902
sS'un'
p972
g6
sS'ui'
p973
g4
sS'uh'
p974
g4
sS'uk'
p975
g178
sS'uj'
p976
g4
sS'ue'
p977
S'ytr'
p978
sS'ud'
p979
S'hgf'
p980
sS'ug'
p981
g6
sS'uf'
p982
S'hg'
p983
sS'ua'
p984
S'hgfds'
p985
sS'uc'
p986
S'hv'
p987
sS'ub'
p988
g6
sS'aa'
p989
g4
sS'ac'
p990
S'sd'
p991
sS'ab'
p992
S'sdfg'
p993
sS'ae'
p994
g123
sS'ad'
p995
g123
sS'ag'
p996
S'sdf'
p997
sS'af'
p998
S'sd'
p999
sS'ai'
p1000
S'sdfghj'
p1001
sS'ah'
p1002
S'sdfg'
p1003
sS'ak'
p1004
S'sdfghj'
p1005
sS'aj'
p1006
S'sdfgh'
p1007
sS'am'
p1008
S'sdfghj'
p1009
sS'al'
p1010
S'sdfghjk'
p1011
sS'ao'
p1012
S'sdfghjk'
p1013
sS'an'
p1014
S'sdfgh'
p1015
sS'aq'
p1016
g4
sS'ap'
p1017
S'sdfghjkl'
p1018
sS'as'
p1019
g4
sS'ar'
p1020
S'sd'
p1021
sS'au'
p1022
S'sdfgh'
p1023
sS'at'
p1024
S'sdf'
p1025
sS'aw'
p1026
g4
sS'av'
p1027
S'sdf'
p1028
sS'ay'
p1029
S'sdfg'
p1030
sS'ax'
p1031
g123
sS'az'
p1032
g4
sS'nh'
p1033
g4
sS'ni'
p1034
g174
sS'nj'
p1035
g4
sS'nk'
p1036
g4
sS'nl'
p1037
g174
sS'nm'
p1038
g4
sS'nn'
p1039
g4
sS'no'
p1040
g174
sS'na'
p1041
S'hgfds'
p1042
sS'nb'
p1043
g4
sS'nc'
p1044
S'bv'
p1045
sS'nd'
p1046
S'hgf'
p1047
sS'ne'
p1048
S'hytr'
p1049
sS'nf'
p1050
S'hg'
p1051
sS'ng'
p1052
g6
sS'nx'
p1053
S'bvc'
p1054
sS'ny'
p1055
g6
sS'nz'
p1056
S'bvcx'
p1057
sS'np'
p1058
S'ml'
p1059
sS'nq'
p1060
S'bvcxza'
p1061
sS'nr'
p1062
S'bvf'
p1063
sS'ns'
p1064
S'bvcx'
p1065
sS'nt'
p1066
S'bg'
p1067
sS'nu'
p1068
g6
sS'nv'
p1069
g154
sS'nw'
p1070
S'bvcxs'
p1071
sS'vq'
p1072
S'frew'
p1073
s.